(dp0
Vmessages
p1
(lp2
VWARNING einleitung.tex:26 \u2014 LaTeX Warning: Citation '\u005ctodo' on page 2 undefined on input line 26.
p3
asVfiles_with_guttermarks
p4
c__builtin__
set
p5
((lp6
V/Users/fragner/Google Drive/Studium/Bachelorarbeit/bac-latex/./analyse.tex
p7
aV/Users/fragner/Google Drive/Studium/Bachelorarbeit/bac-latex/einleitung.tex
p8
atp9
Rp10
s.