(dp0
Vengine
p1
Vxelatex
p2
sVpackages
p3
c__builtin__
set
p4
((lp5
Vtextcomp
p6
aVinputenc
p7
aVfontenc
p8
atp9
Rp10
sVfiles_with_guttermarks
p11
g4
((lp12
S'presentation.tex'
p13
aV/Users/fragner/Google Drive/Studium/Bachelorarbeit/bac-latex/./presentation.tex
p14
atp15
Rp16
sVsynctex
p17
I01
s.